target datalayout = "e-m:e-p270:32:32-p271:32:32-p272:64:64-i64:64-i128:128-f80:128-n8:16:32:64-S128"
target triple = "x86_64-pc-linux-gnu"

%"class.icu_77::SpoofData" = type { ptr, i8, ptr, i32, %"struct.std::atomic", ptr, ptr, ptr }
%"struct.std::atomic" = type { %"struct.std::__atomic_base" }
%"struct.std::__atomic_base" = type { i32 }
%"struct.icu_77::SpoofDataHeader" = type { i32, [4 x i8], i32, i32, i32, i32, i32, i32, i32, [15 x i32] }

; Function Attrs: mustprogress nounwind uwtable
define noundef i32 @_ZNK6icu_779SpoofData9serializeEPviR10UErrorCode(ptr noundef nonnull align 8 dereferenceable(56) %0, ptr noundef %1, i32 noundef %2, ptr noundef nonnull align 4 dereferenceable(4) %3) #0 align 2 {
  %5 = alloca i32, align 4
  %6 = alloca ptr, align 8
  %7 = alloca ptr, align 8
  %8 = alloca i32, align 4
  %9 = alloca ptr, align 8
  %10 = alloca i32, align 4
  %11 = alloca i32, align 4
  store ptr %0, ptr %6, align 8, !tbaa !8
  store ptr %1, ptr %7, align 8, !tbaa !10
  store i32 %2, ptr %8, align 4, !tbaa !48
  store ptr %3, ptr %9, align 8, !tbaa !10
  %12 = load ptr, ptr %6, align 8
  call void @llvm.lifetime.start.p0(i64 4, ptr %10) #15
  %13 = getelementptr inbounds nuw %"class.icu_77::SpoofData", ptr %12, i32 0, i32 0
  %14 = load ptr, ptr %13, align 8, !tbaa !35
  %15 = getelementptr inbounds nuw %"struct.icu_77::SpoofDataHeader", ptr %14, i32 0, i32 2
  %16 = load i32, ptr %15, align 4, !tbaa !105
  store i32 %16, ptr %10, align 4, !tbaa !48
  %17 = load i32, ptr %8, align 4, !tbaa !48
  %18 = load i32, ptr %10, align 4, !tbaa !48
  %19 = icmp slt i32 %17, %18
  br i1 %19, label %20, label %23

20:                                               ; preds = %4
  %21 = load ptr, ptr %9, align 8, !tbaa !10
  store i32 15, ptr %21, align 4, !tbaa !30
  %22 = load i32, ptr %10, align 4, !tbaa !48
  store i32 %22, ptr %5, align 4
  store i32 1, ptr %11, align 4
  br label %33

23:                                               ; preds = %4
  br label %24

24:                                               ; preds = %23
  %25 = load ptr, ptr %7, align 8, !tbaa !10
  %26 = getelementptr inbounds nuw %"class.icu_77::SpoofData", ptr %12, i32 0, i32 0
  %27 = load ptr, ptr %26, align 8, !tbaa !35
  %28 = load i32, ptr %10, align 4, !tbaa !48
  %29 = sext i32 %28 to i64
  call void @llvm.memcpy.p0.p0.i64(ptr align 1 %25, ptr align 4 %27, i64 %29, i1 false)
  br label %30

30:                                               ; preds = %24
  br label %31

31:                                               ; preds = %30
  %32 = load i32, ptr %10, align 4, !tbaa !48
  store i32 %32, ptr %5, align 4
  store i32 1, ptr %11, align 4
  br label %33

33:                                               ; preds = %31, %20
  call void @llvm.lifetime.end.p0(i64 4, ptr %10) #15
  %34 = load i32, ptr %5, align 4
  ret i32 %34
}