; Function Attrs: mustprogress nofree norecurse nosync nounwind willreturn memory(readwrite, inaccessiblemem: none) uwtable
define noundef i32 @_ZNK6icu_779SpoofData9serializeEPviR10UErrorCode(ptr noundef nonnull readonly align 8 captures(none) dereferenceable(56) %0, ptr noundef writeonly captures(none) %1, i32 noundef %2, ptr noundef nonnull writeonly align 4 captures(none) dereferenceable(4) %3) local_unnamed_addr #18 align 2 {
  %5 = load ptr, ptr %0, align 8, !tbaa !29
  %6 = getelementptr inbounds nuw i8, ptr %5, i64 8
  %7 = load i32, ptr %6, align 4, !tbaa !79
  %8 = icmp slt i32 %2, %7
  br i1 %8, label %9, label %10

9:                                                ; preds = %4
  store i32 15, ptr %3, align 4, !tbaa !19
  br label %12

10:                                               ; preds = %4
  %11 = sext i32 %7 to i64
  tail call void @llvm.memcpy.p0.p0.i64(ptr align 1 %1, ptr nonnull align 4 %5, i64 %11, i1 false)
  br label %12

12:                                               ; preds = %10, %9
  ret i32 %7
}